#include <math.h>
#include <stdio.h>
#include <stdlib.h>
#include <string.h>


int main()
{
	char s[256],b[256],c[256];
	int i,j,k,n,m;
	scanf("%s",&s);
	scanf("%s",&b);
	scanf("%s",&c);
	n=strlen(s)-strlen(b);
	for(i=0;i<=n;i++)
	{
		m=0;
		for(j=0,k=i;j<strlen(b);j++,k++)
		{
			if(s[k]==b[j])
			{
				m++;
			}
		}
		if(m==strlen(b))
		{
			for(j=i,k=0;j<strlen(b)+i;j++,k++)
			{
				s[j]=c[k];
			}
			break;
		}
	}
	puts(s);


	return 0;
}

