; ModuleID = '7/1099.c'
source_filename = "7/1099.c"
target datalayout = "e-m:e-p270:32:32-p271:32:32-p272:64:64-i64:64-f80:128-n8:16:32:64-S128"
target triple = "x86_64-pc-linux-gnu"

@.str = private unnamed_addr constant [3 x i8] c"%s\00", align 1

; Function Attrs: noinline nounwind uwtable
define dso_local i32 @main() #0 {
  %1 = alloca i32, align 4
  %2 = alloca [256 x i8], align 16
  %3 = alloca [256 x i8], align 16
  %4 = alloca [256 x i8], align 16
  %5 = alloca i32, align 4
  %6 = alloca i32, align 4
  %7 = alloca i32, align 4
  %8 = alloca i32, align 4
  %9 = alloca i32, align 4
  store i32 0, i32* %1, align 4
  %10 = call i32 (i8*, ...) @__isoc99_scanf(i8* getelementptr inbounds ([3 x i8], [3 x i8]* @.str, i64 0, i64 0), [256 x i8]* %2)
  %11 = call i32 (i8*, ...) @__isoc99_scanf(i8* getelementptr inbounds ([3 x i8], [3 x i8]* @.str, i64 0, i64 0), [256 x i8]* %3)
  %12 = call i32 (i8*, ...) @__isoc99_scanf(i8* getelementptr inbounds ([3 x i8], [3 x i8]* @.str, i64 0, i64 0), [256 x i8]* %4)
  %13 = getelementptr inbounds [256 x i8], [256 x i8]* %2, i64 0, i64 0
  %14 = call i64 @strlen(i8* %13) #3
  %15 = getelementptr inbounds [256 x i8], [256 x i8]* %3, i64 0, i64 0
  %16 = call i64 @strlen(i8* %15) #3
  %17 = sub i64 %14, %16
  %18 = trunc i64 %17 to i32
  store i32 %18, i32* %8, align 4
  store i32 0, i32* %5, align 4
  br label %19

19:                                               ; preds = %84, %0
  %20 = load i32, i32* %5, align 4
  %21 = load i32, i32* %8, align 4
  %22 = icmp sle i32 %20, %21
  br i1 %22, label %23, label %87

23:                                               ; preds = %19
  store i32 0, i32* %9, align 4
  store i32 0, i32* %6, align 4
  %24 = load i32, i32* %5, align 4
  store i32 %24, i32* %7, align 4
  br label %25

25:                                               ; preds = %47, %23
  %26 = load i32, i32* %6, align 4
  %27 = sext i32 %26 to i64
  %28 = getelementptr inbounds [256 x i8], [256 x i8]* %3, i64 0, i64 0
  %29 = call i64 @strlen(i8* %28) #3
  %30 = icmp ult i64 %27, %29
  br i1 %30, label %31, label %52

31:                                               ; preds = %25
  %32 = load i32, i32* %7, align 4
  %33 = sext i32 %32 to i64
  %34 = getelementptr inbounds [256 x i8], [256 x i8]* %2, i64 0, i64 %33
  %35 = load i8, i8* %34, align 1
  %36 = sext i8 %35 to i32
  %37 = load i32, i32* %6, align 4
  %38 = sext i32 %37 to i64
  %39 = getelementptr inbounds [256 x i8], [256 x i8]* %3, i64 0, i64 %38
  %40 = load i8, i8* %39, align 1
  %41 = sext i8 %40 to i32
  %42 = icmp eq i32 %36, %41
  br i1 %42, label %43, label %46

43:                                               ; preds = %31
  %44 = load i32, i32* %9, align 4
  %45 = add nsw i32 %44, 1
  store i32 %45, i32* %9, align 4
  br label %46

46:                                               ; preds = %43, %31
  br label %47

47:                                               ; preds = %46
  %48 = load i32, i32* %6, align 4
  %49 = add nsw i32 %48, 1
  store i32 %49, i32* %6, align 4
  %50 = load i32, i32* %7, align 4
  %51 = add nsw i32 %50, 1
  store i32 %51, i32* %7, align 4
  br label %25

52:                                               ; preds = %25
  %53 = load i32, i32* %9, align 4
  %54 = sext i32 %53 to i64
  %55 = getelementptr inbounds [256 x i8], [256 x i8]* %3, i64 0, i64 0
  %56 = call i64 @strlen(i8* %55) #3
  %57 = icmp eq i64 %54, %56
  br i1 %57, label %58, label %83

58:                                               ; preds = %52
  %59 = load i32, i32* %5, align 4
  store i32 %59, i32* %6, align 4
  store i32 0, i32* %7, align 4
  br label %60

60:                                               ; preds = %77, %58
  %61 = load i32, i32* %6, align 4
  %62 = sext i32 %61 to i64
  %63 = getelementptr inbounds [256 x i8], [256 x i8]* %3, i64 0, i64 0
  %64 = call i64 @strlen(i8* %63) #3
  %65 = load i32, i32* %5, align 4
  %66 = sext i32 %65 to i64
  %67 = add i64 %64, %66
  %68 = icmp ult i64 %62, %67
  br i1 %68, label %69, label %82

69:                                               ; preds = %60
  %70 = load i32, i32* %7, align 4
  %71 = sext i32 %70 to i64
  %72 = getelementptr inbounds [256 x i8], [256 x i8]* %4, i64 0, i64 %71
  %73 = load i8, i8* %72, align 1
  %74 = load i32, i32* %6, align 4
  %75 = sext i32 %74 to i64
  %76 = getelementptr inbounds [256 x i8], [256 x i8]* %2, i64 0, i64 %75
  store i8 %73, i8* %76, align 1
  br label %77

77:                                               ; preds = %69
  %78 = load i32, i32* %6, align 4
  %79 = add nsw i32 %78, 1
  store i32 %79, i32* %6, align 4
  %80 = load i32, i32* %7, align 4
  %81 = add nsw i32 %80, 1
  store i32 %81, i32* %7, align 4
  br label %60

82:                                               ; preds = %60
  br label %87

83:                                               ; preds = %52
  br label %84

84:                                               ; preds = %83
  %85 = load i32, i32* %5, align 4
  %86 = add nsw i32 %85, 1
  store i32 %86, i32* %5, align 4
  br label %19

87:                                               ; preds = %82, %19
  %88 = getelementptr inbounds [256 x i8], [256 x i8]* %2, i64 0, i64 0
  %89 = call i32 @puts(i8* %88)
  ret i32 0
}

declare dso_local i32 @__isoc99_scanf(i8*, ...) #1

; Function Attrs: nounwind readonly
declare dso_local i64 @strlen(i8*) #2

declare dso_local i32 @puts(i8*) #1


!llvm.module.flags = !{!0}
!llvm.ident = !{!1}

!0 = !{i32 1, !"wchar_size", i32 4}
!1 = !{!"clang version 10.0.0-4ubuntu1 "}
